; Function Attrs: mustprogress uwtable
define hidden void @_ZN4lean20lcnf_valid_let_declsERKNS_16elab_environmentERKNS_4exprE(ptr dead_on_unwind noalias writable sret(%"class.lean::optional.0") align 8 %0, ptr noundef nonnull align 8 dereferenceable(8) %1, ptr noundef nonnull align 8 dereferenceable(8) %2) local_unnamed_addr #0 personality ptr @__gxx_personality_v0 {
  %4 = alloca %"class.lean::lcnf_valid_let_decls_fn", align 8
  %5 = alloca %"class.lean::local_ctx", align 8
  call void @llvm.lifetime.start.p0(i64 408, ptr nonnull %4) #25
  call void @llvm.lifetime.start.p0(i64 8, ptr nonnull %5) #25
  call void @_ZN4lean9local_ctxC1Ev(ptr noundef nonnull align 8 dereferenceable(8) %5)
  invoke void @_ZN4lean23lcnf_valid_let_decls_fnC2ERKNS_16elab_environmentERKNS_9local_ctxE(ptr noundef nonnull align 8 dereferenceable(408) %4, ptr noundef nonnull align 8 dereferenceable(8) %1, ptr noundef nonnull align 8 dereferenceable(8) %5)
          to label %6 unwind label %48

6:                                                ; preds = %3
  invoke void @_ZN4lean23lcnf_valid_let_decls_fn5visitERKNS_4exprE(ptr dead_on_unwind writable sret(%"class.lean::optional.0") align 8 %0, ptr noundef nonnull align 8 dereferenceable(408) %4, ptr noundef nonnull align 8 dereferenceable(8) %2)
          to label %_ZN4lean23lcnf_valid_let_decls_fnclERKNS_4exprE.exit unwind label %50

_ZN4lean23lcnf_valid_let_decls_fnclERKNS_4exprE.exit: ; preds = %6
  %7 = getelementptr inbounds nuw i8, ptr %4, i64 400
  %8 = load ptr, ptr %7, align 8, !tbaa !3
  %9 = ptrtoint ptr %8 to i64
  %10 = and i64 %9, 1
  %.not.i.i.i = icmp eq i64 %10, 0
  br i1 %.not.i.i.i, label %11, label %_ZN4lean10object_refD2Ev.exit.i

11:                                               ; preds = %_ZN4lean23lcnf_valid_let_decls_fnclERKNS_4exprE.exit
  %12 = load i32, ptr %8, align 4, !tbaa !13
  %13 = icmp sgt i32 %12, 1
  br i1 %13, label %14, label %16, !prof !15

14:                                               ; preds = %11
  %15 = add nsw i32 %12, -1
  store i32 %15, ptr %8, align 4, !tbaa !13
  br label %_ZN4lean10object_refD2Ev.exit.i

16:                                               ; preds = %11
  %.not.i.i.i.i = icmp eq i32 %12, 0
  br i1 %.not.i.i.i.i, label %_ZN4lean10object_refD2Ev.exit.i, label %17

17:                                               ; preds = %16
  invoke void @lean_dec_ref_cold(ptr noundef nonnull %8)
          to label %_ZN4lean10object_refD2Ev.exit.i unwind label %18

18:                                               ; preds = %17
  %19 = landingpad { ptr, i32 }
          catch ptr null
  %20 = extractvalue { ptr, i32 } %19, 0
  call void @__clang_call_terminate(ptr %20) #26
  unreachable

_ZN4lean10object_refD2Ev.exit.i:                  ; preds = %17, %16, %14, %_ZN4lean23lcnf_valid_let_decls_fnclERKNS_4exprE.exit
  %21 = getelementptr inbounds nuw i8, ptr %4, i64 8
  call void @_ZN4lean12type_checker5stateD2Ev(ptr noundef nonnull align 8 dereferenceable(392) %21) #25
  %22 = load ptr, ptr %4, align 8, !tbaa !3
  %23 = ptrtoint ptr %22 to i64
  %24 = and i64 %23, 1
  %.not.i.i1.i = icmp eq i64 %24, 0
  br i1 %.not.i.i1.i, label %25, label %_ZN4lean23lcnf_valid_let_decls_fnD2Ev.exit

25:                                               ; preds = %_ZN4lean10object_refD2Ev.exit.i
  %26 = load i32, ptr %22, align 4, !tbaa !13
  %27 = icmp sgt i32 %26, 1
  br i1 %27, label %28, label %30, !prof !15

28:                                               ; preds = %25
  %29 = add nsw i32 %26, -1
  store i32 %29, ptr %22, align 4, !tbaa !13
  br label %_ZN4lean23lcnf_valid_let_decls_fnD2Ev.exit

30:                                               ; preds = %25
  %.not.i.i.i2.i = icmp eq i32 %26, 0
  br i1 %.not.i.i.i2.i, label %_ZN4lean23lcnf_valid_let_decls_fnD2Ev.exit, label %31

31:                                               ; preds = %30
  invoke void @lean_dec_ref_cold(ptr noundef nonnull %22)
          to label %_ZN4lean23lcnf_valid_let_decls_fnD2Ev.exit unwind label %32

32:                                               ; preds = %31
  %33 = landingpad { ptr, i32 }
          catch ptr null
  %34 = extractvalue { ptr, i32 } %33, 0
  call void @__clang_call_terminate(ptr %34) #26
  unreachable

_ZN4lean23lcnf_valid_let_decls_fnD2Ev.exit:       ; preds = %_ZN4lean10object_refD2Ev.exit.i, %28, %30, %31
  %35 = load ptr, ptr %5, align 8, !tbaa !3
  %36 = ptrtoint ptr %35 to i64
  %37 = and i64 %36, 1
  %.not.i.i = icmp eq i64 %37, 0
  br i1 %.not.i.i, label %38, label %_ZN4lean10object_refD2Ev.exit

38:                                               ; preds = %_ZN4lean23lcnf_valid_let_decls_fnD2Ev.exit
  %39 = load i32, ptr %35, align 4, !tbaa !13
  %40 = icmp sgt i32 %39, 1
  br i1 %40, label %41, label %43, !prof !15

41:                                               ; preds = %38
  %42 = add nsw i32 %39, -1
  store i32 %42, ptr %35, align 4, !tbaa !13
  br label %_ZN4lean10object_refD2Ev.exit

43:                                               ; preds = %38
  %.not.i.i.i5 = icmp eq i32 %39, 0
  br i1 %.not.i.i.i5, label %_ZN4lean10object_refD2Ev.exit, label %44

44:                                               ; preds = %43
  invoke void @lean_dec_ref_cold(ptr noundef nonnull %35)
          to label %_ZN4lean10object_refD2Ev.exit unwind label %45

45:                                               ; preds = %44
  %46 = landingpad { ptr, i32 }
          catch ptr null
  %47 = extractvalue { ptr, i32 } %46, 0
  call void @__clang_call_terminate(ptr %47) #26
  unreachable

_ZN4lean10object_refD2Ev.exit:                    ; preds = %_ZN4lean23lcnf_valid_let_decls_fnD2Ev.exit, %41, %43, %44
  call void @llvm.lifetime.end.p0(i64 8, ptr nonnull %5) #25
  call void @llvm.lifetime.end.p0(i64 408, ptr nonnull %4) #25
  ret void

48:                                               ; preds = %3
  %49 = landingpad { ptr, i32 }
          cleanup
  br label %52

50:                                               ; preds = %6
  %51 = landingpad { ptr, i32 }
          cleanup
  call void @_ZN4lean23lcnf_valid_let_decls_fnD2Ev(ptr noundef nonnull align 8 dereferenceable(408) %4) #25
  br label %52

52:                                               ; preds = %50, %48
  %.pn = phi { ptr, i32 } [ %51, %50 ], [ %49, %48 ]
  call void @_ZN4lean10object_refD2Ev(ptr noundef nonnull align 8 dereferenceable(8) %5) #25
  call void @llvm.lifetime.end.p0(i64 8, ptr nonnull %5) #25
  call void @llvm.lifetime.end.p0(i64 408, ptr nonnull %4) #25
  resume { ptr, i32 } %.pn
}